target datalayout = "e-m:e-p270:32:32-p271:32:32-p272:64:64-i64:64-i128:128-f80:128-n8:16:32:64-S128"
target triple = "x86_64-unknown-linux-gnu"

%struct.DeviceClass = type { %struct.ObjectClass, [1 x i64], ptr, ptr, ptr, i8, i8, ptr, ptr, ptr, ptr, ptr }
%struct.ObjectClass = type { ptr, ptr, [4 x ptr], [4 x ptr], ptr, ptr }
%struct.TPCI200State = type { %struct.PCIDevice, %struct.IPackBus, %struct.MemoryRegion, %struct.MemoryRegion, %struct.MemoryRegion, %struct.MemoryRegion, %struct.MemoryRegion, %struct.MemoryRegion, [3 x i8], [4 x i8], i16, i8 }
%struct.PCIDevice = type { %struct.DeviceState, i8, i8, ptr, ptr, ptr, ptr, ptr, i32, %struct.PCIReqIDCache, [64 x i8], [7 x %struct.PCIIORegion], %struct.AddressSpace, %struct.MemoryRegion, %struct.MemoryRegion, ptr, ptr, [3 x ptr], i8, i8, i32, i8, i32, ptr, ptr, ptr, ptr, ptr, ptr, %struct.MemoryRegion, %struct.MemoryRegion, %struct.MemoryRegion, ptr, i8, i32, i8, %struct.PCIExpressDevice, ptr, ptr, i32, i8, %struct.MemoryRegion, i32, ptr, ptr, ptr, ptr, ptr, i32 }
%struct.DeviceState = type { %struct.Object, ptr, ptr, i8, i8, i64, ptr, i32, i8, ptr, %struct.NamedGPIOListHead, %struct.NamedClockListHead, %struct.BusStateHead, i32, i32, i32, %struct.ResettableState, ptr, %struct.MemReentrancyGuard }
%struct.Object = type { ptr, ptr, ptr, i32, ptr }
%struct.NamedGPIOListHead = type { ptr }
%struct.NamedClockListHead = type { ptr }
%struct.BusStateHead = type { ptr }
%struct.ResettableState = type { i32, i8, i8 }
%struct.MemReentrancyGuard = type { i8 }
%struct.PCIReqIDCache = type { ptr, i32 }
%struct.PCIIORegion = type { i64, i64, i8, ptr, ptr }
%struct.AddressSpace = type { %struct.rcu_head, ptr, ptr, ptr, i32, i32, ptr, %union.anon, %union.anon.0 }
%struct.rcu_head = type { ptr, ptr }
%union.anon = type { %struct.QTailQLink }
%struct.QTailQLink = type { ptr, ptr }
%union.anon.0 = type { %struct.QTailQLink }
%struct.PCIExpressDevice = type { i8, i8, i8, i16, %struct.PCIEAERLog, i16, i16, i16, %struct.PCIESriovPF, %struct.PCIESriovVF }
%struct.PCIEAERLog = type { i16, i16, ptr }
%struct.PCIESriovPF = type { i16, [7 x i8], ptr, ptr }
%struct.PCIESriovVF = type { ptr, i16 }
%struct.IPackBus = type { %struct.BusState, i8, i8, ptr }
%struct.BusState = type { %struct.Object, ptr, ptr, ptr, i32, i8, i8, i32, %union.BusChildHead, %struct.BusStateEntry, %struct.ResettableState }
%union.BusChildHead = type { %struct.QTailQLink }
%struct.BusStateEntry = type { ptr, ptr }
%struct.MemoryRegion = type { %struct.Object, i8, i8, i8, i8, i8, i8, i8, i8, i8, i8, ptr, ptr, ptr, ptr, ptr, ptr, i32, i128, i64, ptr, i64, i8, i8, i8, i8, i8, ptr, i64, i32, %union.anon.1, %union.anon.2, %union.anon.3, ptr, i32, ptr, ptr, i8 }
%union.anon.1 = type { %struct.QTailQLink }
%union.anon.2 = type { %struct.QTailQLink }
%union.anon.3 = type { %struct.QTailQLink }
%struct.IPackDeviceClass = type { %struct.DeviceClass, ptr, ptr, ptr, ptr, ptr, ptr, ptr, ptr, ptr, ptr, ptr, ptr }

@.str.14 = private unnamed_addr constant [13 x i8] c"ipack-device\00", align 1
@.str.15 = private unnamed_addr constant [103 x i8] c"/home/dtcxzyw/WorkSpace/Projects/compilers/llvm-opt-benchmark/bench/qemu/qemu/include/hw/ipack/ipack.h\00", align 1
@__func__.IPACK_DEVICE_GET_CLASS = private unnamed_addr constant [23 x i8] c"IPACK_DEVICE_GET_CLASS\00", align 1

; Function Attrs: nounwind sspstrong uwtable
define internal i64 @adjust_value(i1 noundef zeroext %big_endian, ptr noundef %val, i32 noundef %size) #0 {
entry:
  %big_endian.addr = alloca i8, align 1
  %val.addr = alloca ptr, align 8
  %size.addr = alloca i32, align 4
  %frombool = zext i1 %big_endian to i8
  store i8 %frombool, ptr %big_endian.addr, align 1
  store ptr %val, ptr %val.addr, align 8
  store i32 %size, ptr %size.addr, align 4
  %0 = load i8, ptr %big_endian.addr, align 1
  %tobool = trunc i8 %0 to i1
  br i1 %tobool, label %land.lhs.true, label %if.end

land.lhs.true:                                    ; preds = %entry
  %1 = load i32, ptr %size.addr, align 4
  %cmp = icmp eq i32 %1, 2
  br i1 %cmp, label %if.then, label %if.end

if.then:                                          ; preds = %land.lhs.true
  %2 = load ptr, ptr %val.addr, align 8
  %3 = load i64, ptr %2, align 8
  %conv = trunc i64 %3 to i16
  %4 = call i16 @llvm.bswap.i16(i16 %conv)
  %conv1 = zext i16 %4 to i64
  %5 = load ptr, ptr %val.addr, align 8
  store i64 %conv1, ptr %5, align 8
  br label %if.end

if.end:                                           ; preds = %if.then, %land.lhs.true, %entry
  %6 = load ptr, ptr %val.addr, align 8
  %7 = load i64, ptr %6, align 8
  ret i64 %7
}

; Function Attrs: nounwind sspstrong uwtable
define internal ptr @IPACK_DEVICE_GET_CLASS(ptr noundef %obj) #0 {
entry:
  %obj.addr = alloca ptr, align 8
  store ptr %obj, ptr %obj.addr, align 8
  %0 = load ptr, ptr %obj.addr, align 8
  %call = call ptr @object_get_class(ptr noundef %0)
  %call1 = call ptr @object_class_dynamic_cast_assert(ptr noundef %call, ptr noundef @.str.14, ptr noundef @.str.15, i32 noundef 34, ptr noundef @__func__.IPACK_DEVICE_GET_CLASS)
  ret ptr %call1
}

; Function Attrs: nounwind sspstrong uwtable
define internal void @adjust_addr(i1 noundef zeroext %big_endian, ptr noundef %addr, i32 noundef %size) #0 {
entry:
  %big_endian.addr = alloca i8, align 1
  %addr.addr = alloca ptr, align 8
  %size.addr = alloca i32, align 4
  %frombool = zext i1 %big_endian to i8
  store i8 %frombool, ptr %big_endian.addr, align 1
  store ptr %addr, ptr %addr.addr, align 8
  store i32 %size, ptr %size.addr, align 4
  %0 = load i8, ptr %big_endian.addr, align 1
  %tobool = trunc i8 %0 to i1
  br i1 %tobool, label %land.lhs.true, label %if.end

land.lhs.true:                                    ; preds = %entry
  %1 = load i32, ptr %size.addr, align 4
  %cmp = icmp eq i32 %1, 1
  br i1 %cmp, label %if.then, label %if.end

if.then:                                          ; preds = %land.lhs.true
  %2 = load ptr, ptr %addr.addr, align 8
  %3 = load i64, ptr %2, align 8
  %xor = xor i64 %3, 1
  store i64 %xor, ptr %2, align 8
  br label %if.end

if.end:                                           ; preds = %if.then, %land.lhs.true, %entry
  ret void
}

; Function Attrs: nounwind sspstrong uwtable
define internal i64 @tpci200_read_las2(ptr noundef %opaque, i64 noundef %addr, i32 noundef %size) #0 {
entry:
  %opaque.addr = alloca ptr, align 8
  %addr.addr = alloca i64, align 8
  %size.addr = alloca i32, align 4
  %s = alloca ptr, align 8
  %ip = alloca ptr, align 8
  %ret = alloca i64, align 8
  %ip_n = alloca i32, align 4
  %offset = alloca i32, align 4
  %k = alloca ptr, align 8
  store ptr %opaque, ptr %opaque.addr, align 8
  store i64 %addr, ptr %addr.addr, align 8
  store i32 %size, ptr %size.addr, align 4
  %0 = load ptr, ptr %opaque.addr, align 8
  store ptr %0, ptr %s, align 8
  store i64 0, ptr %ret, align 8
  %1 = load ptr, ptr %s, align 8
  %big_endian = getelementptr inbounds %struct.TPCI200State, ptr %1, i32 0, i32 8
  %arrayidx = getelementptr [3 x i8], ptr %big_endian, i64 0, i64 2
  %2 = load i8, ptr %arrayidx, align 2
  %tobool = trunc i8 %2 to i1
  %3 = load i32, ptr %size.addr, align 4
  call void @adjust_addr(i1 noundef zeroext %tobool, ptr noundef %addr.addr, i32 noundef %3)
  %4 = load i64, ptr %addr.addr, align 8
  %shr = lshr i64 %4, 23
  %conv = trunc i64 %shr to i32
  store i32 %conv, ptr %ip_n, align 4
  %5 = load i64, ptr %addr.addr, align 8
  %and = and i64 %5, 8388607
  %conv1 = trunc i64 %and to i32
  store i32 %conv1, ptr %offset, align 4
  %6 = load ptr, ptr %s, align 8
  %bus = getelementptr inbounds %struct.TPCI200State, ptr %6, i32 0, i32 1
  %7 = load i32, ptr %ip_n, align 4
  %call = call ptr @ipack_device_find(ptr noundef %bus, i32 noundef %7)
  store ptr %call, ptr %ip, align 8
  %8 = load ptr, ptr %ip, align 8
  %cmp = icmp eq ptr %8, null
  br i1 %cmp, label %if.then, label %if.else

if.then:                                          ; preds = %entry
  br label %do.body

do.body:                                          ; preds = %if.then
  br label %do.end

do.end:                                           ; preds = %do.body
  br label %if.end9

if.else:                                          ; preds = %entry
  %9 = load ptr, ptr %ip, align 8
  %call3 = call ptr @IPACK_DEVICE_GET_CLASS(ptr noundef %9)
  store ptr %call3, ptr %k, align 8
  %10 = load ptr, ptr %k, align 8
  %mem_read16 = getelementptr inbounds %struct.IPackDeviceClass, ptr %10, i32 0, i32 9
  %11 = load ptr, ptr %mem_read16, align 8
  %tobool4 = icmp ne ptr %11, null
  br i1 %tobool4, label %if.then5, label %if.end

if.then5:                                         ; preds = %if.else
  %12 = load ptr, ptr %k, align 8
  %mem_read166 = getelementptr inbounds %struct.IPackDeviceClass, ptr %12, i32 0, i32 9
  %13 = load ptr, ptr %mem_read166, align 8
  %14 = load ptr, ptr %ip, align 8
  %15 = load i32, ptr %offset, align 4
  %call7 = call zeroext i16 %13(ptr noundef %14, i32 noundef %15)
  %conv8 = zext i16 %call7 to i64
  store i64 %conv8, ptr %ret, align 8
  br label %if.end

if.end:                                           ; preds = %if.then5, %if.else
  br label %if.end9

if.end9:                                          ; preds = %if.end, %do.end
  %16 = load ptr, ptr %s, align 8
  %big_endian10 = getelementptr inbounds %struct.TPCI200State, ptr %16, i32 0, i32 8
  %arrayidx11 = getelementptr [3 x i8], ptr %big_endian10, i64 0, i64 2
  %17 = load i8, ptr %arrayidx11, align 2
  %tobool12 = trunc i8 %17 to i1
  %18 = load i32, ptr %size.addr, align 4
  %call13 = call i64 @adjust_value(i1 noundef zeroext %tobool12, ptr noundef %ret, i32 noundef %18)
  ret i64 %call13
}