; Function Attrs: nounwind sspstrong uwtable
define internal range(i64 0, 65536) i64 @tpci200_read_las2(ptr noundef %opaque, i64 noundef %addr, i32 noundef %size) #0 {
entry:
  %arrayidx = getelementptr i8, ptr %opaque, i64 4386
  %0 = load i8, ptr %arrayidx, align 2
  %tobool = trunc i8 %0 to i1
  %cmp.i = icmp eq i32 %size, 1
  %or.cond.i = and i1 %cmp.i, %tobool
  %xor.i = zext i1 %or.cond.i to i64
  %spec.select = xor i64 %addr, %xor.i
  %shr = lshr i64 %addr, 23
  %conv = trunc i64 %shr to i32
  %1 = trunc i64 %spec.select to i32
  %conv1 = and i32 %1, 8388607
  %bus = getelementptr inbounds nuw i8, ptr %opaque, i64 2608
  %call = tail call ptr @ipack_device_find(ptr noundef nonnull %bus, i32 noundef %conv) #6
  %cmp = icmp eq ptr %call, null
  br i1 %cmp, label %if.end9, label %if.else

if.else:                                          ; preds = %entry
  %call.i = tail call ptr @object_get_class(ptr noundef nonnull %call) #6
  %call1.i = tail call ptr @object_class_dynamic_cast_assert(ptr noundef %call.i, ptr noundef nonnull @.str.14, ptr noundef nonnull @.str.15, i32 noundef 34, ptr noundef nonnull @__func__.IPACK_DEVICE_GET_CLASS) #6
  %mem_read16 = getelementptr inbounds nuw i8, ptr %call1.i, i64 240
  %2 = load ptr, ptr %mem_read16, align 8
  %tobool4.not = icmp eq ptr %2, null
  br i1 %tobool4.not, label %if.end9, label %if.then5

if.then5:                                         ; preds = %if.else
  %call7 = tail call zeroext i16 %2(ptr noundef nonnull %call, i32 noundef %conv1) #6
  %conv8 = zext i16 %call7 to i64
  br label %if.end9

if.end9:                                          ; preds = %if.else, %if.then5, %entry
  %ret.0 = phi i64 [ 0, %entry ], [ 0, %if.else ], [ %conv8, %if.then5 ]
  %3 = load i8, ptr %arrayidx, align 2
  %tobool12 = trunc i8 %3 to i1
  %cmp.i7 = icmp eq i32 %size, 2
  %or.cond.i8 = and i1 %cmp.i7, %tobool12
  %conv.i = trunc nuw i64 %ret.0 to i16
  %4 = tail call i16 @llvm.bswap.i16(i16 %conv.i)
  %conv1.i = zext i16 %4 to i64
  %5 = select i1 %or.cond.i8, i64 %conv1.i, i64 %ret.0
  ret i64 %5
}